; Function Attrs: mustprogress nounwind uwtable
define noundef i32 @_ZN7glslang12TScanContext12reservedWordEv(ptr noundef nonnull align 8 dereferenceable(76) %0) local_unnamed_addr #0 align 2 {
  %2 = getelementptr inbounds nuw i8, ptr %0, i64 8
  %3 = load ptr, ptr %2, align 8
  %4 = getelementptr inbounds nuw i8, ptr %3, i64 232
  %5 = load ptr, ptr %4, align 8
  %6 = getelementptr inbounds nuw i8, ptr %5, i64 8
  %7 = load ptr, ptr %6, align 8
  %8 = load ptr, ptr %5, align 8
  %9 = ptrtoint ptr %7 to i64
  %10 = ptrtoint ptr %8 to i64
  %11 = sub i64 %9, %10
  %12 = lshr exact i64 %11, 3
  %13 = trunc i64 %12 to i32
  %14 = icmp slt i32 %13, 4
  br i1 %14, label %22, label %15

15:                                               ; preds = %1
  %16 = getelementptr inbounds nuw i8, ptr %0, i64 24
  %17 = getelementptr inbounds nuw i8, ptr %0, i64 64
  %18 = load ptr, ptr %17, align 8
  %19 = load ptr, ptr %3, align 8
  %20 = getelementptr inbounds nuw i8, ptr %19, i64 344
  %21 = load ptr, ptr %20, align 8
  tail call void (ptr, ptr, ptr, ptr, ptr, ...) %21(ptr noundef nonnull align 8 dereferenceable(1280) %3, ptr noundef nonnull align 8 dereferenceable(24) %16, ptr noundef nonnull @.str.501, ptr noundef %18, ptr noundef nonnull @.str.446, ptr noundef nonnull @.str.446) #15
  br label %22

22:                                               ; preds = %15, %1
  ret i32 0
}